(lp0
(dp1
S'index'
p2
I0
sS'value'
p3
I00
sS'id'
p4
I1
sS'name'
p5
S'output x'
p6
sS'address'
p7
I33
sa(dp8
g2
I0
sg3
I01
sg4
I2
sg5
S'output y'
p9
sg7
I35
sa(dp10
g2
I0
sg3
I00
sg4
I3
sg5
S'output z'
p11
sg7
I39
sa.